target datalayout = "e-m:e-p270:32:32-p271:32:32-p272:64:64-i64:64-i128:128-f80:128-n8:16:32:64-S128"
target triple = "x86_64-pc-linux-gnu"

@.str = private unnamed_addr constant [10 x i8] c"../hash.c\00", align 1
@environ = external global ptr, align 8
@ruby_single_main_ractor = external global ptr, align 8

; Function Attrs: inlinehint nounwind sspstrong uwtable
define internal zeroext i1 @rb_multi_ractor_p() #2 {
  %1 = alloca i1, align 1
  %2 = load ptr, ptr @ruby_single_main_ractor, align 8, !tbaa !171
  %3 = icmp ne ptr %2, null
  %4 = xor i1 %3, true
  %5 = xor i1 %4, true
  %6 = zext i1 %5 to i32
  %7 = sext i32 %6 to i64
  %8 = call i64 @llvm.expect.i64(i64 %7, i64 1)
  %9 = icmp ne i64 %8, 0
  br i1 %9, label %10, label %11

10:                                               ; preds = %0
  store i1 false, ptr %1, align 1
  br label %12

11:                                               ; preds = %0
  store i1 true, ptr %1, align 1
  br label %12

12:                                               ; preds = %11, %10
  %13 = load i1, ptr %1, align 1
  ret i1 %13
}

; Function Attrs: inlinehint nounwind sspstrong uwtable
define internal void @rb_vm_lock_leave(ptr noundef %0, ptr noundef %1, i32 noundef %2) #2 {
  %4 = alloca ptr, align 8
  %5 = alloca ptr, align 8
  %6 = alloca i32, align 4
  store ptr %0, ptr %4, align 8, !tbaa !95
  store ptr %1, ptr %5, align 8, !tbaa !14
  store i32 %2, ptr %6, align 4, !tbaa !16
  %7 = call zeroext i1 @rb_multi_ractor_p()
  br i1 %7, label %8, label %10

8:                                                ; preds = %3
  %9 = load ptr, ptr %4, align 8, !tbaa !95
  call void @rb_vm_lock_leave_body(ptr noundef %9)
  br label %10

10:                                               ; preds = %8, %3
  ret void
}

; Function Attrs: nounwind sspstrong uwtable
define internal i64 @env_enc_str_new(ptr noundef %0, i64 noundef %1, ptr noundef %2) #0 {
  %4 = alloca ptr, align 8
  %5 = alloca i64, align 8
  %6 = alloca ptr, align 8
  %7 = alloca i64, align 8
  store ptr %0, ptr %4, align 8, !tbaa !14
  store i64 %1, ptr %5, align 8, !tbaa !7
  store ptr %2, ptr %6, align 8, !tbaa !99
  call void @llvm.lifetime.start.p0(i64 8, ptr %7) #28
  %8 = load ptr, ptr %4, align 8, !tbaa !14
  %9 = load i64, ptr %5, align 8, !tbaa !7
  %10 = load ptr, ptr %6, align 8, !tbaa !99
  %11 = call i64 @rb_external_str_new_with_enc(ptr noundef %8, i64 noundef %9, ptr noundef %10)
  store i64 %11, ptr %7, align 8, !tbaa !7
  %12 = load i64, ptr %7, align 8, !tbaa !7
  %13 = call i64 @rb_obj_freeze(i64 noundef %12)
  %14 = load i64, ptr %7, align 8, !tbaa !7
  call void @llvm.lifetime.end.p0(i64 8, ptr %7) #28
  ret i64 %14
}

; Function Attrs: inlinehint nounwind sspstrong uwtable
define internal void @rb_vm_lock_enter(ptr noundef %0, ptr noundef %1, i32 noundef %2) #2 {
  %4 = alloca ptr, align 8
  %5 = alloca ptr, align 8
  %6 = alloca i32, align 4
  store ptr %0, ptr %4, align 8, !tbaa !95
  store ptr %1, ptr %5, align 8, !tbaa !14
  store i32 %2, ptr %6, align 4, !tbaa !16
  %7 = call zeroext i1 @rb_multi_ractor_p()
  br i1 %7, label %8, label %10

8:                                                ; preds = %3
  %9 = load ptr, ptr %4, align 8, !tbaa !95
  call void @rb_vm_lock_enter_body(ptr noundef %9)
  br label %10

10:                                               ; preds = %8, %3
  ret void
}

; Function Attrs: nounwind sspstrong uwtable
define internal i64 @env_keys(i32 noundef %0) #0 {
  %2 = alloca i32, align 4
  %3 = alloca ptr, align 8
  %4 = alloca i64, align 8
  %5 = alloca i32, align 4
  %6 = alloca ptr, align 8
  %7 = alloca ptr, align 8
  %8 = alloca ptr, align 8
  %9 = alloca i64, align 8
  %10 = alloca i64, align 8
  store i32 %0, ptr %2, align 4, !tbaa !16
  call void @llvm.lifetime.start.p0(i64 8, ptr %3) #28
  %11 = load i32, ptr %2, align 4, !tbaa !16
  %12 = icmp ne i32 %11, 0
  br i1 %12, label %13, label %14

13:                                               ; preds = %1
  br label %16

14:                                               ; preds = %1
  %15 = call ptr @rb_locale_encoding()
  br label %16

16:                                               ; preds = %14, %13
  %17 = phi ptr [ null, %13 ], [ %15, %14 ]
  store ptr %17, ptr %3, align 8, !tbaa !99
  call void @llvm.lifetime.start.p0(i64 8, ptr %4) #28
  %18 = call i64 @rb_ary_new()
  store i64 %18, ptr %4, align 8, !tbaa !7
  call void @llvm.lifetime.start.p0(i64 4, ptr %5) #28
  call void @rb_vm_lock_enter(ptr noundef %5, ptr noundef @.str, i32 noundef 5457)
  call void @llvm.lifetime.start.p0(i64 8, ptr %6) #28
  %19 = load ptr, ptr @environ, align 8, !tbaa !101
  store ptr %19, ptr %6, align 8, !tbaa !101
  br label %20

20:                                               ; preds = %60, %16
  %21 = load ptr, ptr %6, align 8, !tbaa !101
  %22 = load ptr, ptr %21, align 8, !tbaa !14
  %23 = icmp ne ptr %22, null
  br i1 %23, label %24, label %63

24:                                               ; preds = %20
  call void @llvm.lifetime.start.p0(i64 8, ptr %7) #28
  %25 = load ptr, ptr %6, align 8, !tbaa !101
  %26 = load ptr, ptr %25, align 8, !tbaa !14
  %27 = call ptr @strchr(ptr noundef %26, i32 noundef 61) #26
  store ptr %27, ptr %7, align 8, !tbaa !14
  %28 = load ptr, ptr %7, align 8, !tbaa !14
  %29 = icmp ne ptr %28, null
  br i1 %29, label %30, label %60

30:                                               ; preds = %24
  call void @llvm.lifetime.start.p0(i64 8, ptr %8) #28
  %31 = load ptr, ptr %6, align 8, !tbaa !101
  %32 = load ptr, ptr %31, align 8, !tbaa !14
  store ptr %32, ptr %8, align 8, !tbaa !14
  call void @llvm.lifetime.start.p0(i64 8, ptr %9) #28
  %33 = load ptr, ptr %7, align 8, !tbaa !14
  %34 = load ptr, ptr %8, align 8, !tbaa !14
  %35 = ptrtoint ptr %33 to i64
  %36 = ptrtoint ptr %34 to i64
  %37 = sub i64 %35, %36
  store i64 %37, ptr %9, align 8, !tbaa !7
  call void @llvm.lifetime.start.p0(i64 8, ptr %10) #28
  %38 = load i32, ptr %2, align 4, !tbaa !16
  %39 = icmp ne i32 %38, 0
  br i1 %39, label %40, label %50

40:                                               ; preds = %30
  br i1 false, label %41, label %44

41:                                               ; preds = %40
  %42 = load i64, ptr %9, align 8, !tbaa !7
  %43 = call i1 @llvm.is.constant.i64(i64 %42)
  br label %44

44:                                               ; preds = %41, %40
  %45 = phi i1 [ false, %40 ], [ %43, %41 ]
  %46 = select i1 %45, ptr @rb_utf8_str_new_static, ptr @rb_utf8_str_new
  %47 = load ptr, ptr %8, align 8, !tbaa !14
  %48 = load i64, ptr %9, align 8, !tbaa !7
  %49 = call i64 %46(ptr noundef %47, i64 noundef %48)
  br label %55

50:                                               ; preds = %30
  %51 = load ptr, ptr %8, align 8, !tbaa !14
  %52 = load i64, ptr %9, align 8, !tbaa !7
  %53 = load ptr, ptr %3, align 8, !tbaa !99
  %54 = call i64 @env_enc_str_new(ptr noundef %51, i64 noundef %52, ptr noundef %53)
  br label %55

55:                                               ; preds = %50, %44
  %56 = phi i64 [ %49, %44 ], [ %54, %50 ]
  store i64 %56, ptr %10, align 8, !tbaa !7
  %57 = load i64, ptr %4, align 8, !tbaa !7
  %58 = load i64, ptr %10, align 8, !tbaa !7
  %59 = call i64 @rb_ary_push(i64 noundef %57, i64 noundef %58)
  call void @llvm.lifetime.end.p0(i64 8, ptr %10) #28
  call void @llvm.lifetime.end.p0(i64 8, ptr %9) #28
  call void @llvm.lifetime.end.p0(i64 8, ptr %8) #28
  br label %60

60:                                               ; preds = %55, %24
  %61 = load ptr, ptr %6, align 8, !tbaa !101
  %62 = getelementptr ptr, ptr %61, i32 1
  store ptr %62, ptr %6, align 8, !tbaa !101
  call void @llvm.lifetime.end.p0(i64 8, ptr %7) #28
  br label %20, !llvm.loop !103

63:                                               ; preds = %20
  call void @llvm.lifetime.end.p0(i64 8, ptr %6) #28
  call void @rb_vm_lock_leave(ptr noundef %5, ptr noundef @.str, i32 noundef 5472)
  call void @llvm.lifetime.end.p0(i64 4, ptr %5) #28
  %64 = load i64, ptr %4, align 8, !tbaa !7
  call void @llvm.lifetime.end.p0(i64 8, ptr %4) #28
  call void @llvm.lifetime.end.p0(i64 8, ptr %3) #28
  ret i64 %64
}