; Function Attrs: nounwind sspstrong uwtable
define internal fastcc i64 @env_keys(i32 noundef range(i32 0, 2) %0) unnamed_addr #0 {
  %2 = alloca i32, align 4
  %.not = icmp eq i32 %0, 0
  br i1 %.not, label %3, label %5

3:                                                ; preds = %1
  %4 = tail call ptr @rb_locale_encoding() #28
  br label %5

5:                                                ; preds = %1, %3
  %6 = phi ptr [ %4, %3 ], [ null, %1 ]
  %7 = tail call i64 @rb_ary_new() #28
  call void @llvm.lifetime.start.p0(i64 4, ptr nonnull %2) #28
  %8 = load ptr, ptr @ruby_single_main_ractor, align 8, !tbaa !82
  %.not.i.i = icmp eq ptr %8, null
  br i1 %.not.i.i, label %9, label %rb_vm_lock_enter.exit

9:                                                ; preds = %5
  call void @rb_vm_lock_enter_body(ptr noundef nonnull %2) #28
  br label %rb_vm_lock_enter.exit

rb_vm_lock_enter.exit:                            ; preds = %5, %9
  %10 = load ptr, ptr @environ, align 8, !tbaa !89
  %11 = load ptr, ptr %10, align 8, !tbaa !91
  %.not1821 = icmp eq ptr %11, null
  br i1 %.not1821, label %._crit_edge, label %.lr.ph

.lr.ph:                                           ; preds = %rb_vm_lock_enter.exit
  br i1 %.not, label %.lr.ph.split.us, label %.lr.ph.split

.lr.ph.split.us:                                  ; preds = %.lr.ph, %21
  %12 = phi ptr [ %23, %21 ], [ %11, %.lr.ph ]
  %.022.us = phi ptr [ %22, %21 ], [ %10, %.lr.ph ]
  %13 = call ptr @strchr(ptr noundef nonnull dereferenceable(1) %12, i32 noundef 61) #29
  %.not19.us = icmp eq ptr %13, null
  br i1 %.not19.us, label %21, label %14

14:                                               ; preds = %.lr.ph.split.us
  %15 = ptrtoint ptr %13 to i64
  %16 = ptrtoint ptr %12 to i64
  %17 = sub i64 %15, %16
  %18 = call i64 @rb_external_str_new_with_enc(ptr noundef nonnull %12, i64 noundef %17, ptr noundef %6) #28
  %19 = call i64 @rb_obj_freeze(i64 noundef %18) #28
  %20 = call i64 @rb_ary_push(i64 noundef %7, i64 noundef %18) #28
  br label %21

21:                                               ; preds = %14, %.lr.ph.split.us
  %22 = getelementptr i8, ptr %.022.us, i64 8
  %23 = load ptr, ptr %22, align 8, !tbaa !91
  %.not18.us = icmp eq ptr %23, null
  br i1 %.not18.us, label %._crit_edge, label %.lr.ph.split.us, !llvm.loop !93

.lr.ph.split:                                     ; preds = %.lr.ph, %32
  %24 = phi ptr [ %34, %32 ], [ %11, %.lr.ph ]
  %.022 = phi ptr [ %33, %32 ], [ %10, %.lr.ph ]
  %25 = call ptr @strchr(ptr noundef nonnull dereferenceable(1) %24, i32 noundef 61) #29
  %.not19 = icmp eq ptr %25, null
  br i1 %.not19, label %32, label %26

26:                                               ; preds = %.lr.ph.split
  %27 = ptrtoint ptr %25 to i64
  %28 = ptrtoint ptr %24 to i64
  %29 = sub i64 %27, %28
  %30 = call i64 @rb_utf8_str_new(ptr noundef nonnull %24, i64 noundef %29) #28
  %31 = call i64 @rb_ary_push(i64 noundef %7, i64 noundef %30) #28
  br label %32

32:                                               ; preds = %26, %.lr.ph.split
  %33 = getelementptr i8, ptr %.022, i64 8
  %34 = load ptr, ptr %33, align 8, !tbaa !91
  %.not18 = icmp eq ptr %34, null
  br i1 %.not18, label %._crit_edge, label %.lr.ph.split, !llvm.loop !93

._crit_edge:                                      ; preds = %32, %21, %rb_vm_lock_enter.exit
  %35 = load ptr, ptr @ruby_single_main_ractor, align 8, !tbaa !82
  %.not.i.i20 = icmp eq ptr %35, null
  br i1 %.not.i.i20, label %36, label %rb_vm_lock_leave.exit

36:                                               ; preds = %._crit_edge
  call void @rb_vm_lock_leave_body(ptr noundef nonnull %2) #28
  br label %rb_vm_lock_leave.exit

rb_vm_lock_leave.exit:                            ; preds = %._crit_edge, %36
  call void @llvm.lifetime.end.p0(i64 4, ptr nonnull %2) #28
  ret i64 %7
}